(dp0
S'JH05AW6380'
p1
I121
sS'JH01AV7634'
p2
I114
sS'JH05Z9697'
p3
I18
sS'AP07TB1989'
p4
I130
sS'TN20BS2223'
p5
I95
sS'TN36Y9906'
p6
I2
sS'JH05V7748'
p7
I108
sS'CG04DN8731'
p8
I83
sS'OR05U6821'
p9
I70
sS'OD04D0605'
p10
I69
sS'OR04AD5529'
p11
I36
sS'JH05BR9134'
p12
I28
sS'CG04D4870'
p13
I109
sS'WB23B7201'
p14
I100
sS'OD04A6132'
p15
I102
sS'TN30U6751'
p16
I5
sS'BR01GF8461'
p17
I119
sS'TN28BB9075'
p18
I20
sS'OD04G4791'
p19
I62
sS'OD11H9307'
p20
I79
sS'OD04C1925'
p21
I41
sS'OR04M6922'
p22
I9
sS'CG04JC3588'
p23
I43
sS'OD04D9687'
p24
I113
sS'WB23C9411'
p25
I74
sS'AP07TU1248'
p26
I127
sS'JH05BQ1509'
p27
I11
sS'BR02GA3943'
p28
I47
sS'OD11D4683'
p29
I46
sS'AP03TE2588'
p30
I106
sS'JH0BQ1509'
p31
I32
sS'TN56K2336'
p32
I33
sS'JH10BF9400'
p33
I112
sS'BR01GA9889'
p34
I98
sS'OR11J1747'
p35
I56
sS'OD04F1729'
p36
I57
sS'JH05AW5291'
p37
I123
sS'OD04H5921'
p38
I63
sS'JH01BE2315'
p39
I115
sS'BR01GA5026'
p40
I91
sS'BR06G3964'
p41
I84
sS'AP07TU2566'
p42
I68
sS'OR07V7068'
p43
I90
sS'OR07Y9451'
p44
I59
sS'KA01AB5627'
p45
I30
sS'TN52D1217'
p46
I31
sS'JH05P9376'
p47
I118
sS'BR01GB9171'
p48
I85
sS'OR07U3751'
p49
I103
sS'TN56H9904'
p50
I6
sS'TN529742'
p51
I21
sS'TN889158'
p52
I25
sS'OR01S7415'
p53
I67
sS'OR07U9441'
p54
I125
sS'TN52J3873'
p55
I22
sS'BR01GD7712'
p56
I101
sS'BR01GF7235'
p57
I34
sS'OR07W5637'
p58
I40
sS'JH05AC8204'
p59
I44
sS'OR07V2855'
p60
I61
sS'JH02M1289'
p61
I50
sS'AP04TX2171'
p62
I64
sS'OM784121'
p63
I131
sS'OD07M1151'
p64
I49
sS'OR07J9793'
p65
I10
sS'OR05AJ1911'
p66
I128
sS'BR02G0735'
p67
I94
sS'OR07U6675'
p68
I122
sS'OR11D4683'
p69
I4
sS'OD04G6821'
p70
I37
sS'CG08L3445'
p71
I16
sS'JH12C4835'
p72
I111
sS'OR07AA0311'
p73
I35
sS'OR05AJ4215'
p74
I42
sS'TN90C2988'
p75
I15
sS'BR25A4359'
p76
I29
sS'JH05V5242'
p77
I76
sS'OD04F6436'
p78
I124
sS'OR07V5231'
p79
I87
sS'OR07Y7231'
p80
I24
sS'NL01N5129'
p81
I73
sS'CG04FB5095'
p82
I52
sS'OD04C1829'
p83
I80
sS'OR05AD5529'
p84
I27
sS'JH05AE4540'
p85
I58
sS'OR09G6882'
p86
I53
sS'TN52K1437'
p87
I26
sS'OR07Z2395'
p88
I23
sS'WB03C9131'
p89
I78
sS'OR04M9321'
p90
I86
sS'TN52F9587'
p91
I120
sS'OD07L2975'
p92
I89
sS'OD04D5891'
p93
I66
sS'KA51A0876'
p94
I3
sS'BR02AA8561'
p95
I8
sS'TN52B1698'
p96
I105
sS'OR07V0091'
p97
I54
sS'NL02G8465'
p98
I97
sS'CG04DK4870'
p99
I71
sS'BR02GA0735'
p100
I110
sS'OR04M5321'
p101
I104
sS'OR14N5329'
p102
I99
sS'OR05AJ1525'
p103
I48
sS'JH10BR9134'
p104
I12
sS'OR04M5329'
p105
I55
sS'AP26TB0388'
p106
I75
sS'JH05AD7616'
p107
I81
sS'WB25F7344'
p108
I39
sS'OR07W2988'
p109
I13
sS'NL02N0151'
p110
I117
sS'CG04DM2391'
p111
I126
sS'AP05TF2187'
p112
I77
sS'AP07TU1409'
p113
I65
sS'OR05AJ8915'
p114
I60
sS'OD04F2036'
p115
I72
sS'OR07W2322'
p116
I19
sS'CG04J9518'
p117
I38
sS'OR14Q7721'
p118
I92
sS'BR06GB9397'
p119
I96
sS'JH01AE6027'
p120
I1
sS'WB23B7298'
p121
I51
sS'TN31BD2234'
p122
I7
sS'AP05TB7489'
p123
I93
sS'BR01GB3130'
p124
I107
sS'OD04J1422'
p125
I45
sS'OD04F1988'
p126
I82
sS'TN30BC5699'
p127
I14
sS'JH05W7748'
p128
I129
sS'OD07J9793'
p129
I17
sS'TN78X5080'
p130
I116
sS'OR07W2855'
p131
I88
s.