(dp0
S'Sergrarh'
p1
I1
sS'Bellupada'
p2
I6
sS'Panikholi'
p3
I2
sS'Chilakapalem'
p4
I8
sS'Mulbagal'
p5
I21
sS'Budanam'
p6
I19
sS'Gudipada (Old Gangapada)'
p7
I4
sS'Gurapalli'
p8
I5
sS'Kaza'
p9
I15
sS'Pottipadu'
p10
I14
sS'Vempadu'
p11
I11
sS'Madapam'
p12
I7
sS'Sunambatti (Musunur)'
p13
I18
sS'Manguli'
p14
I3
sS'Gaddurur'
p15
I20
sS'Nathavalasa/ Vizianagaram'
p16
I10
sS'Krishnavaram'
p17
I12
sS'Kalaparru'
p18
I13
sS'Tangutur'
p19
I17
sS'Laxmipuram'
p20
I9
sS'Bolapalli'
p21
I16
s.