(dp0
S'Sergrarh'
p1
F0.0
sS'Chilakapalem'
p2
F27.02
sS'Panikholi'
p3
F93.44
sS'Gudipada (Old Gangapada)'
p4
F56.155
sS'Bellupada'
p5
F83.835
sS'Vempadu'
p6
F127.81
sS'Nathavalasa/ Vizianagaram'
p7
F39.335
sS'Budanam'
p8
F97.57499999999999
sS'Gurapalli'
p9
F88.0
sS'Kaza'
p10
F45.51
sS'Pottipadu'
p11
F21.47
sS'Mulbagal'
p12
F30.665
sS'Madapam'
p13
F115.69
sS'Sunambatti (Musunur)'
p14
F62.07
sS'Manguli'
p15
F53.66
sS'Gaddurur'
p16
F217.32999999999998
sS'Tangutur'
p17
F63.974999999999994
sS'Krishnavaram'
p18
F69.66
sS'Kalaparru'
p19
F144.195
sS'Laxmipuram'
p20
F39.26
sS'Bolapalli'
p21
F82.215
s.