(dp0
S'Chilakapalem'
p1
F0.73
sS'Nathavalasa/ Vizianagaram'
p2
F1.2236111111099999
sS'Panikholi'
p3
F2.78
sS'Sergrarh'
p4
F36.28625
sS'Budanam'
p5
F3.361944444445
sS'Vempadu'
p6
F6.11597222222
sS'Gudipada (Old Gangapada)'
p7
F1.581944444445
sS'Kalaparru'
p8
F6.040277777775
sS'Gurapalli'
p9
F2.55333333333
sS'Kaza'
p10
F1.39027777778
sS'Pottipadu'
p11
F0.65
sS'Mulbagal'
p12
F1.0299999999999998
sS'Madapam'
p13
F5.46555555556
sS'Sunambatti (Musunur)'
p14
F1.846805555555
sS'Manguli'
p15
F1.55277777778
sS'Gaddurur'
p16
F9.877638888884999
sS'Tangutur'
p17
F2.1072222222250003
sS'Krishnavaram'
p18
F2.54833333333
sS'Bellupada'
p19
F3.71625
sS'Laxmipuram'
p20
F1.23055555556
sS'Bolapalli'
p21
F2.738333333335
s.